; Function Attrs: nounwind sspstrong uwtable
define internal void @virtio_scsi_common_class_init(ptr noundef %klass, ptr readnone captures(none) %data) #0 {
entry:
  %call.i = tail call ptr @object_class_dynamic_cast_assert(ptr noundef %klass, ptr noundef nonnull @.str.3, ptr noundef nonnull @.str.4, i32 noundef 85, ptr noundef nonnull @__func__.VIRTIO_DEVICE_CLASS) #13
  %call.i2 = tail call ptr @object_class_dynamic_cast_assert(ptr noundef %klass, ptr noundef nonnull @.str.7, ptr noundef nonnull @.str.8, i32 noundef 77, ptr noundef nonnull @__func__.DEVICE_CLASS) #13
  %get_config = getelementptr inbounds nuw i8, ptr %call.i, i64 224
  store ptr @virtio_scsi_get_config, ptr %get_config, align 8
  %categories = getelementptr inbounds nuw i8, ptr %call.i2, i64 96
  %0 = load i64, ptr %categories, align 8
  %or.i = or i64 %0, 4
  store i64 %or.i, ptr %categories, align 8
  ret void
}